target datalayout = "e-m:e-p270:32:32-p271:32:32-p272:64:64-i64:64-i128:128-f80:128-n8:16:32:64-S128"
target triple = "x86_64-pc-linux-gnu"

%struct.cli_ctx_tag = type { ptr, ptr, ptr, ptr, ptr, ptr, ptr, i64, ptr, i32, i32, ptr, i32, i32, ptr, [16 x i8], ptr, ptr, ptr, ptr, ptr, ptr, %struct.timeval, i8, i8 }
%struct.timeval = type { i64, i64 }
%struct.cl_engine = type { i32, i32, i32, [2 x i32], i32, i32, i32, ptr, i32, i64, i32, i32, i64, i64, i32, i32, i32, i32, ptr, ptr, ptr, ptr, ptr, ptr, ptr, ptr, ptr, ptr, ptr, ptr, ptr, ptr, ptr, ptr, ptr, ptr, ptr, i64, ptr, %struct.crtmgr, ptr, ptr, ptr, ptr, ptr, ptr, ptr, ptr, ptr, ptr, ptr, ptr, ptr, ptr, ptr, ptr, ptr, %struct.cli_all_bc, [7 x ptr], [7 x i32], i32, i32, i32, i32, i64, i64, i64, i64, i64, ptr, ptr, ptr, ptr, ptr, ptr, ptr, ptr, ptr, i32, i32, i32, i64, i64, i64, ptr }
%struct.crtmgr = type { ptr, i32 }
%struct.cli_all_bc = type { ptr, i32, ptr, %struct.cli_environment, i32 }
%struct.cli_environment = type { i32, i32, i32, i32, i32, i32, i32, [65 x i8], [65 x i8], [65 x i8], [65 x i8], [65 x i8], [65 x i8], [65 x i8], i8, i8, i8, i8, i8, i8, i8, i8, i8 }

@.str.225 = private unnamed_addr constant [9 x i8] c"tnef-tmp\00", align 1
@.str.226 = private unnamed_addr constant [51 x i8] c"Can't create temporary directory for tnef file %s\0A\00", align 1

; Function Attrs: nounwind uwtable
define internal i32 @cli_scantnef(ptr noundef %0) #0 {
  %2 = alloca i32, align 4
  %3 = alloca ptr, align 8
  %4 = alloca i32, align 4
  %5 = alloca ptr, align 8
  store ptr %0, ptr %3, align 8
  %6 = load ptr, ptr %3, align 8
  %7 = getelementptr inbounds %struct.cli_ctx_tag, ptr %6, i32 0, i32 2
  %8 = load ptr, ptr %7, align 8
  %9 = call ptr @cli_gentemp_with_prefix(ptr noundef %8, ptr noundef @.str.225)
  store ptr %9, ptr %5, align 8
  %10 = load ptr, ptr %5, align 8
  %11 = icmp ne ptr %10, null
  br i1 %11, label %13, label %12

12:                                               ; preds = %1
  store i32 20, ptr %2, align 4
  br label %43

13:                                               ; preds = %1
  %14 = load ptr, ptr %5, align 8
  %15 = call i32 @mkdir(ptr noundef %14, i32 noundef 448) #11
  %16 = icmp ne i32 %15, 0
  br i1 %16, label %17, label %20

17:                                               ; preds = %13
  %18 = load ptr, ptr %5, align 8
  call void (ptr, ...) @cli_dbgmsg(ptr noundef @.str.226, ptr noundef %18)
  %19 = load ptr, ptr %5, align 8
  call void @free(ptr noundef %19) #11
  store i32 18, ptr %2, align 4
  br label %43

20:                                               ; preds = %13
  %21 = load ptr, ptr %5, align 8
  %22 = load ptr, ptr %3, align 8
  %23 = call i32 @cli_tnef(ptr noundef %21, ptr noundef %22)
  store i32 %23, ptr %4, align 4
  %24 = load i32, ptr %4, align 4
  %25 = icmp eq i32 %24, 0
  br i1 %25, label %26, label %30

26:                                               ; preds = %20
  %27 = load ptr, ptr %5, align 8
  %28 = load ptr, ptr %3, align 8
  %29 = call i32 @cli_magic_scan_dir(ptr noundef %27, ptr noundef %28, i32 noundef 0)
  store i32 %29, ptr %4, align 4
  br label %30

30:                                               ; preds = %26, %20
  %31 = load ptr, ptr %3, align 8
  %32 = getelementptr inbounds %struct.cli_ctx_tag, ptr %31, i32 0, i32 6
  %33 = load ptr, ptr %32, align 8
  %34 = getelementptr inbounds %struct.cl_engine, ptr %33, i32 0, i32 8
  %35 = load i32, ptr %34, align 8
  %36 = icmp ne i32 %35, 0
  br i1 %36, label %40, label %37

37:                                               ; preds = %30
  %38 = load ptr, ptr %5, align 8
  %39 = call i32 @cli_rmdirs(ptr noundef %38)
  br label %40

40:                                               ; preds = %37, %30
  %41 = load ptr, ptr %5, align 8
  call void @free(ptr noundef %41) #11
  %42 = load i32, ptr %4, align 4
  store i32 %42, ptr %2, align 4
  br label %43

43:                                               ; preds = %40, %17, %12
  %44 = load i32, ptr %2, align 4
  ret i32 %44
}