; Function Attrs: nounwind uwtable
define internal fastcc i32 @cli_scantnef(ptr noundef %0) unnamed_addr #0 {
  %2 = getelementptr inbounds nuw i8, ptr %0, i64 16
  %3 = load ptr, ptr %2, align 8
  %4 = tail call ptr @cli_gentemp_with_prefix(ptr noundef %3, ptr noundef nonnull @.str.225) #16
  %.not = icmp eq ptr %4, null
  br i1 %.not, label %20, label %5

5:                                                ; preds = %1
  %6 = tail call i32 @mkdir(ptr noundef nonnull %4, i32 noundef 448) #16
  %.not17 = icmp eq i32 %6, 0
  br i1 %.not17, label %8, label %7

7:                                                ; preds = %5
  tail call void (ptr, ...) @cli_dbgmsg(ptr noundef nonnull @.str.226, ptr noundef nonnull %4) #16
  br label %.sink.split

8:                                                ; preds = %5
  %9 = tail call i32 @cli_tnef(ptr noundef nonnull %4, ptr noundef nonnull %0) #16
  %10 = icmp eq i32 %9, 0
  br i1 %10, label %11, label %13

11:                                               ; preds = %8
  %12 = tail call i32 @cli_magic_scan_dir(ptr noundef nonnull %4, ptr noundef nonnull %0, i32 noundef 0)
  br label %13

13:                                               ; preds = %11, %8
  %.014 = phi i32 [ %12, %11 ], [ %9, %8 ]
  %14 = getelementptr inbounds nuw i8, ptr %0, i64 48
  %15 = load ptr, ptr %14, align 8
  %16 = getelementptr inbounds nuw i8, ptr %15, i64 40
  %17 = load i32, ptr %16, align 8
  %.not18 = icmp eq i32 %17, 0
  br i1 %.not18, label %18, label %.sink.split

18:                                               ; preds = %13
  %19 = tail call i32 @cli_rmdirs(ptr noundef nonnull %4) #16
  br label %.sink.split

.sink.split:                                      ; preds = %13, %18, %7
  %.0.ph = phi i32 [ 18, %7 ], [ %.014, %18 ], [ %.014, %13 ]
  tail call void @free(ptr noundef nonnull %4) #16
  br label %20

20:                                               ; preds = %.sink.split, %1
  %.0 = phi i32 [ 20, %1 ], [ %.0.ph, %.sink.split ]
  ret i32 %.0
}